target datalayout = "e-m:e-p270:32:32-p271:32:32-p272:64:64-i64:64-i128:128-f80:128-n8:16:32:64-S128"
target triple = "x86_64-unknown-linux-gnu"

; Function Attrs: mustprogress nounwind uwtable
define linkonce_odr dso_local noundef nonnull align 8 dereferenceable(8) ptr @_ZSt3minImERKT_S2_S2_(ptr noundef nonnull align 8 dereferenceable(8) %__a, ptr noundef nonnull align 8 dereferenceable(8) %__b) #4 comdat {
entry:
  %retval = alloca ptr, align 8
  %__a.addr = alloca ptr, align 8
  %__b.addr = alloca ptr, align 8
  store ptr %__a, ptr %__a.addr, align 8
  store ptr %__b, ptr %__b.addr, align 8
  %0 = load ptr, ptr %__b.addr, align 8
  %1 = load i64, ptr %0, align 8
  %2 = load ptr, ptr %__a.addr, align 8
  %3 = load i64, ptr %2, align 8
  %cmp = icmp ult i64 %1, %3
  br i1 %cmp, label %if.then, label %if.end

if.then:                                          ; preds = %entry
  %4 = load ptr, ptr %__b.addr, align 8
  store ptr %4, ptr %retval, align 8
  br label %return

if.end:                                           ; preds = %entry
  %5 = load ptr, ptr %__a.addr, align 8
  store ptr %5, ptr %retval, align 8
  br label %return

return:                                           ; preds = %if.end, %if.then
  %6 = load ptr, ptr %retval, align 8
  ret ptr %6
}

; Function Attrs: mustprogress nounwind uwtable
define internal noundef zeroext i1 @_ZN4node6crypto12_GLOBAL__N_114IsASN1SequenceEPKhmPmS4_(ptr noundef %data, i64 noundef %size, ptr noundef %data_offset, ptr noundef %data_size) #4 {
entry:
  %retval = alloca i1, align 1
  %data.addr = alloca ptr, align 8
  %size.addr = alloca i64, align 8
  %data_offset.addr = alloca ptr, align 8
  %data_size.addr = alloca ptr, align 8
  %n_bytes = alloca i64, align 8
  %length = alloca i64, align 8
  %i = alloca i64, align 8
  %ref.tmp = alloca i64, align 8
  %ref.tmp20 = alloca i64, align 8
  %ref.tmp22 = alloca i64, align 8
  store ptr %data, ptr %data.addr, align 8
  store i64 %size, ptr %size.addr, align 8
  store ptr %data_offset, ptr %data_offset.addr, align 8
  store ptr %data_size, ptr %data_size.addr, align 8
  %0 = load i64, ptr %size.addr, align 8
  %cmp = icmp ult i64 %0, 2
  br i1 %cmp, label %if.then, label %lor.lhs.false

lor.lhs.false:                                    ; preds = %entry
  %1 = load ptr, ptr %data.addr, align 8
  %arrayidx = getelementptr inbounds i8, ptr %1, i64 0
  %2 = load i8, ptr %arrayidx, align 1
  %conv = zext i8 %2 to i32
  %cmp1 = icmp ne i32 %conv, 48
  br i1 %cmp1, label %if.then, label %if.end

if.then:                                          ; preds = %lor.lhs.false, %entry
  store i1 false, ptr %retval, align 1
  br label %return

if.end:                                           ; preds = %lor.lhs.false
  %3 = load ptr, ptr %data.addr, align 8
  %arrayidx2 = getelementptr inbounds i8, ptr %3, i64 1
  %4 = load i8, ptr %arrayidx2, align 1
  %conv3 = zext i8 %4 to i32
  %and = and i32 %conv3, 128
  %tobool = icmp ne i32 %and, 0
  br i1 %tobool, label %if.then4, label %if.else

if.then4:                                         ; preds = %if.end
  %5 = load ptr, ptr %data.addr, align 8
  %arrayidx5 = getelementptr inbounds i8, ptr %5, i64 1
  %6 = load i8, ptr %arrayidx5, align 1
  %conv6 = zext i8 %6 to i32
  %and7 = and i32 %conv6, -129
  %conv8 = sext i32 %and7 to i64
  store i64 %conv8, ptr %n_bytes, align 8
  %7 = load i64, ptr %n_bytes, align 8
  %add = add i64 %7, 2
  %8 = load i64, ptr %size.addr, align 8
  %cmp9 = icmp ugt i64 %add, %8
  br i1 %cmp9, label %if.then12, label %lor.lhs.false10

lor.lhs.false10:                                  ; preds = %if.then4
  %9 = load i64, ptr %n_bytes, align 8
  %cmp11 = icmp ugt i64 %9, 8
  br i1 %cmp11, label %if.then12, label %if.end13

if.then12:                                        ; preds = %lor.lhs.false10, %if.then4
  store i1 false, ptr %retval, align 1
  br label %return

if.end13:                                         ; preds = %lor.lhs.false10
  store i64 0, ptr %length, align 8
  store i64 0, ptr %i, align 8
  br label %for.cond

for.cond:                                         ; preds = %for.inc, %if.end13
  %10 = load i64, ptr %i, align 8
  %11 = load i64, ptr %n_bytes, align 8
  %cmp14 = icmp ult i64 %10, %11
  br i1 %cmp14, label %for.body, label %for.end

for.body:                                         ; preds = %for.cond
  %12 = load i64, ptr %length, align 8
  %shl = shl i64 %12, 8
  %13 = load ptr, ptr %data.addr, align 8
  %14 = load i64, ptr %i, align 8
  %add15 = add i64 %14, 2
  %arrayidx16 = getelementptr inbounds i8, ptr %13, i64 %add15
  %15 = load i8, ptr %arrayidx16, align 1
  %conv17 = zext i8 %15 to i64
  %or = or i64 %shl, %conv17
  store i64 %or, ptr %length, align 8
  br label %for.inc

for.inc:                                          ; preds = %for.body
  %16 = load i64, ptr %i, align 8
  %inc = add i64 %16, 1
  store i64 %inc, ptr %i, align 8
  br label %for.cond, !llvm.loop !5

for.end:                                          ; preds = %for.cond
  %17 = load i64, ptr %n_bytes, align 8
  %add18 = add i64 2, %17
  %18 = load ptr, ptr %data_offset.addr, align 8
  store i64 %add18, ptr %18, align 8
  %19 = load i64, ptr %size.addr, align 8
  %sub = sub i64 %19, 2
  %20 = load i64, ptr %n_bytes, align 8
  %sub19 = sub i64 %sub, %20
  store i64 %sub19, ptr %ref.tmp, align 8
  %call = call noundef nonnull align 8 dereferenceable(8) ptr @_ZSt3minImERKT_S2_S2_(ptr noundef nonnull align 8 dereferenceable(8) %ref.tmp, ptr noundef nonnull align 8 dereferenceable(8) %length)
  %21 = load i64, ptr %call, align 8
  %22 = load ptr, ptr %data_size.addr, align 8
  store i64 %21, ptr %22, align 8
  br label %if.end26

if.else:                                          ; preds = %if.end
  %23 = load ptr, ptr %data_offset.addr, align 8
  store i64 2, ptr %23, align 8
  %24 = load i64, ptr %size.addr, align 8
  %sub21 = sub i64 %24, 2
  store i64 %sub21, ptr %ref.tmp20, align 8
  %25 = load ptr, ptr %data.addr, align 8
  %arrayidx23 = getelementptr inbounds i8, ptr %25, i64 1
  %26 = load i8, ptr %arrayidx23, align 1
  %conv24 = zext i8 %26 to i64
  store i64 %conv24, ptr %ref.tmp22, align 8
  %call25 = call noundef nonnull align 8 dereferenceable(8) ptr @_ZSt3minImERKT_S2_S2_(ptr noundef nonnull align 8 dereferenceable(8) %ref.tmp20, ptr noundef nonnull align 8 dereferenceable(8) %ref.tmp22)
  %27 = load i64, ptr %call25, align 8
  %28 = load ptr, ptr %data_size.addr, align 8
  store i64 %27, ptr %28, align 8
  br label %if.end26

if.end26:                                         ; preds = %if.else, %for.end
  store i1 true, ptr %retval, align 1
  br label %return

return:                                           ; preds = %if.end26, %if.then12, %if.then
  %29 = load i1, ptr %retval, align 1
  ret i1 %29
}

; Function Attrs: mustprogress nounwind uwtable
define internal noundef zeroext i1 @_ZN4node6crypto12_GLOBAL__N_115IsRSAPrivateKeyEPKhm(ptr noundef %data, i64 noundef %size) #4 {
entry:
  %retval = alloca i1, align 1
  %data.addr = alloca ptr, align 8
  %size.addr = alloca i64, align 8
  %offset = alloca i64, align 8
  %len = alloca i64, align 8
  store ptr %data, ptr %data.addr, align 8
  store i64 %size, ptr %size.addr, align 8
  %0 = load ptr, ptr %data.addr, align 8
  %1 = load i64, ptr %size.addr, align 8
  %call = call noundef zeroext i1 @_ZN4node6crypto12_GLOBAL__N_114IsASN1SequenceEPKhmPmS4_(ptr noundef %0, i64 noundef %1, ptr noundef %offset, ptr noundef %len)
  br i1 %call, label %if.end, label %if.then

if.then:                                          ; preds = %entry
  store i1 false, ptr %retval, align 1
  br label %return

if.end:                                           ; preds = %entry
  %2 = load i64, ptr %len, align 8
  %cmp = icmp uge i64 %2, 3
  br i1 %cmp, label %land.lhs.true, label %land.end

land.lhs.true:                                    ; preds = %if.end
  %3 = load ptr, ptr %data.addr, align 8
  %4 = load i64, ptr %offset, align 8
  %arrayidx = getelementptr inbounds i8, ptr %3, i64 %4
  %5 = load i8, ptr %arrayidx, align 1
  %conv = zext i8 %5 to i32
  %cmp1 = icmp eq i32 %conv, 2
  br i1 %cmp1, label %land.lhs.true2, label %land.end

land.lhs.true2:                                   ; preds = %land.lhs.true
  %6 = load ptr, ptr %data.addr, align 8
  %7 = load i64, ptr %offset, align 8
  %add = add i64 %7, 1
  %arrayidx3 = getelementptr inbounds i8, ptr %6, i64 %add
  %8 = load i8, ptr %arrayidx3, align 1
  %conv4 = zext i8 %8 to i32
  %cmp5 = icmp eq i32 %conv4, 1
  br i1 %cmp5, label %land.rhs, label %land.end

land.rhs:                                         ; preds = %land.lhs.true2
  %9 = load ptr, ptr %data.addr, align 8
  %10 = load i64, ptr %offset, align 8
  %add6 = add i64 %10, 2
  %arrayidx7 = getelementptr inbounds i8, ptr %9, i64 %add6
  %11 = load i8, ptr %arrayidx7, align 1
  %conv8 = zext i8 %11 to i32
  %and = and i32 %conv8, 254
  %tobool = icmp ne i32 %and, 0
  %lnot = xor i1 %tobool, true
  br label %land.end

land.end:                                         ; preds = %land.rhs, %land.lhs.true2, %land.lhs.true, %if.end
  %12 = phi i1 [ false, %land.lhs.true2 ], [ false, %land.lhs.true ], [ false, %if.end ], [ %lnot, %land.rhs ]
  store i1 %12, ptr %retval, align 1
  br label %return

return:                                           ; preds = %land.end, %if.then
  %13 = load i1, ptr %retval, align 1
  ret i1 %13
}