; Function Attrs: mustprogress nofree norecurse nosync nounwind willreturn memory(argmem: read) uwtable
define internal fastcc noundef zeroext i1 @_ZN4node6crypto12_GLOBAL__N_115IsRSAPrivateKeyEPKhm(ptr nocapture noundef readonly %data, i64 noundef %size) unnamed_addr #4 {
entry:
  %length.i = alloca i64, align 8
  %ref.tmp.i = alloca i64, align 8
  %ref.tmp20.i = alloca i64, align 8
  %ref.tmp22.i = alloca i64, align 8
  call void @llvm.lifetime.start.p0(i64 8, ptr nonnull %length.i)
  call void @llvm.lifetime.start.p0(i64 8, ptr nonnull %ref.tmp.i)
  call void @llvm.lifetime.start.p0(i64 8, ptr nonnull %ref.tmp20.i)
  call void @llvm.lifetime.start.p0(i64 8, ptr nonnull %ref.tmp22.i)
  %cmp.i = icmp ult i64 %size, 2
  br i1 %cmp.i, label %_ZN4node6crypto12_GLOBAL__N_114IsASN1SequenceEPKhmPmS4_.exit.thread, label %lor.lhs.false.i

lor.lhs.false.i:                                  ; preds = %entry
  %0 = load i8, ptr %data, align 1
  %cmp1.not.i = icmp eq i8 %0, 48
  br i1 %cmp1.not.i, label %if.end.i, label %_ZN4node6crypto12_GLOBAL__N_114IsASN1SequenceEPKhmPmS4_.exit.thread

if.end.i:                                         ; preds = %lor.lhs.false.i
  %arrayidx2.i = getelementptr inbounds i8, ptr %data, i64 1
  %1 = load i8, ptr %arrayidx2.i, align 1
  %tobool.not.i = icmp sgt i8 %1, -1
  br i1 %tobool.not.i, label %if.else.i, label %if.then4.i

if.then4.i:                                       ; preds = %if.end.i
  %2 = and i8 %1, 127
  %conv8.i = zext nneg i8 %2 to i64
  %add.i = add nuw nsw i64 %conv8.i, 2
  %cmp9.i = icmp ugt i64 %add.i, %size
  %cmp11.i = icmp ugt i8 %2, 8
  %or.cond.i = or i1 %cmp11.i, %cmp9.i
  br i1 %or.cond.i, label %_ZN4node6crypto12_GLOBAL__N_114IsASN1SequenceEPKhmPmS4_.exit.thread, label %if.end13.i

if.end13.i:                                       ; preds = %if.then4.i
  %invariant.gep.i = getelementptr i8, ptr %data, i64 2
  %cmp1420.not.i = icmp eq i8 %2, 0
  br i1 %cmp1420.not.i, label %for.end.i, label %for.body.i

for.body.i:                                       ; preds = %if.end13.i, %for.body.i
  %i.022.i = phi i64 [ %inc.i, %for.body.i ], [ 0, %if.end13.i ]
  %or1921.i = phi i64 [ %or.i, %for.body.i ], [ 0, %if.end13.i ]
  %shl.i = shl i64 %or1921.i, 8
  %gep.i = getelementptr i8, ptr %invariant.gep.i, i64 %i.022.i
  %3 = load i8, ptr %gep.i, align 1
  %conv17.i = zext i8 %3 to i64
  %or.i = or disjoint i64 %shl.i, %conv17.i
  %inc.i = add nuw nsw i64 %i.022.i, 1
  %exitcond.not.i = icmp eq i64 %inc.i, %conv8.i
  br i1 %exitcond.not.i, label %for.end.i, label %for.body.i, !llvm.loop !46

for.end.i:                                        ; preds = %for.body.i, %if.end13.i
  %or19.lcssa.i = phi i64 [ 0, %if.end13.i ], [ %or.i, %for.body.i ]
  store i64 %or19.lcssa.i, ptr %length.i, align 8
  %sub.i = add i64 %size, -2
  %sub19.i = sub i64 %sub.i, %conv8.i
  store i64 %sub19.i, ptr %ref.tmp.i, align 8
  %cmp.i.i = icmp ult i64 %or19.lcssa.i, %sub19.i
  %__b.__a.i.i = select i1 %cmp.i.i, ptr %length.i, ptr %ref.tmp.i
  br label %_ZN4node6crypto12_GLOBAL__N_114IsASN1SequenceEPKhmPmS4_.exit

if.else.i:                                        ; preds = %if.end.i
  %sub21.i = add i64 %size, -2
  store i64 %sub21.i, ptr %ref.tmp20.i, align 8
  %conv24.i = zext nneg i8 %1 to i64
  store i64 %conv24.i, ptr %ref.tmp22.i, align 8
  %cmp.i16.i = icmp ugt i64 %sub21.i, %conv24.i
  %__b.__a.i17.i = select i1 %cmp.i16.i, ptr %ref.tmp22.i, ptr %ref.tmp20.i
  br label %_ZN4node6crypto12_GLOBAL__N_114IsASN1SequenceEPKhmPmS4_.exit

_ZN4node6crypto12_GLOBAL__N_114IsASN1SequenceEPKhmPmS4_.exit.thread: ; preds = %lor.lhs.false.i, %entry, %if.then4.i
  call void @llvm.lifetime.end.p0(i64 8, ptr nonnull %length.i)
  call void @llvm.lifetime.end.p0(i64 8, ptr nonnull %ref.tmp.i)
  call void @llvm.lifetime.end.p0(i64 8, ptr nonnull %ref.tmp20.i)
  call void @llvm.lifetime.end.p0(i64 8, ptr nonnull %ref.tmp22.i)
  br label %return

_ZN4node6crypto12_GLOBAL__N_114IsASN1SequenceEPKhmPmS4_.exit: ; preds = %for.end.i, %if.else.i
  %offset.0 = phi i64 [ 2, %if.else.i ], [ %add.i, %for.end.i ]
  %storemerge.in.i = phi ptr [ %__b.__a.i17.i, %if.else.i ], [ %__b.__a.i.i, %for.end.i ]
  %storemerge.i = load i64, ptr %storemerge.in.i, align 8
  call void @llvm.lifetime.end.p0(i64 8, ptr nonnull %length.i)
  call void @llvm.lifetime.end.p0(i64 8, ptr nonnull %ref.tmp.i)
  call void @llvm.lifetime.end.p0(i64 8, ptr nonnull %ref.tmp20.i)
  call void @llvm.lifetime.end.p0(i64 8, ptr nonnull %ref.tmp22.i)
  %cmp = icmp ugt i64 %storemerge.i, 2
  br i1 %cmp, label %land.lhs.true, label %return

land.lhs.true:                                    ; preds = %_ZN4node6crypto12_GLOBAL__N_114IsASN1SequenceEPKhmPmS4_.exit
  %arrayidx = getelementptr inbounds i8, ptr %data, i64 %offset.0
  %4 = load i8, ptr %arrayidx, align 1
  %cmp1 = icmp eq i8 %4, 2
  br i1 %cmp1, label %land.lhs.true2, label %return

land.lhs.true2:                                   ; preds = %land.lhs.true
  %arrayidx3 = getelementptr i8, ptr %arrayidx, i64 1
  %5 = load i8, ptr %arrayidx3, align 1
  %cmp5 = icmp eq i8 %5, 1
  br i1 %cmp5, label %land.rhs, label %return

land.rhs:                                         ; preds = %land.lhs.true2
  %arrayidx7 = getelementptr i8, ptr %arrayidx, i64 2
  %6 = load i8, ptr %arrayidx7, align 1
  %tobool.not = icmp ult i8 %6, 2
  br label %return

return:                                           ; preds = %_ZN4node6crypto12_GLOBAL__N_114IsASN1SequenceEPKhmPmS4_.exit.thread, %land.lhs.true, %land.lhs.true2, %land.rhs, %_ZN4node6crypto12_GLOBAL__N_114IsASN1SequenceEPKhmPmS4_.exit
  %retval.0 = phi i1 [ false, %_ZN4node6crypto12_GLOBAL__N_114IsASN1SequenceEPKhmPmS4_.exit ], [ false, %land.lhs.true2 ], [ false, %land.lhs.true ], [ %tobool.not, %land.rhs ], [ false, %_ZN4node6crypto12_GLOBAL__N_114IsASN1SequenceEPKhmPmS4_.exit.thread ]
  ret i1 %retval.0
}